; Function Attrs: nounwind uwtable
define nonnull ptr @l_Array_anyMUnsafe_any___at_Lean_Elab_Term_addNamedArg___spec__1___boxed(ptr noundef %0, ptr noundef %1, ptr noundef %2, ptr noundef %3) local_unnamed_addr #0 {
  %5 = getelementptr i8, ptr %2, i64 8
  %.val = load i64, ptr %5, align 8, !tbaa !12
  %6 = ptrtoint ptr %2 to i64
  %7 = and i64 %6, 1
  %.not = icmp eq i64 %7, 0
  br i1 %.not, label %8, label %lean_dec.exit13

8:                                                ; preds = %4
  %9 = load i32, ptr %2, align 4, !tbaa !8
  %10 = icmp sgt i32 %9, 1
  br i1 %10, label %11, label %13, !prof !11

11:                                               ; preds = %8
  %12 = add nsw i32 %9, -1
  store i32 %12, ptr %2, align 4, !tbaa !8
  br label %lean_dec.exit13

13:                                               ; preds = %8
  %.not.i = icmp eq i32 %9, 0
  br i1 %.not.i, label %lean_dec.exit13, label %14

14:                                               ; preds = %13
  tail call void @lean_dec_ref_cold(ptr noundef nonnull %2) #3
  br label %lean_dec.exit13

lean_dec.exit13:                                  ; preds = %14, %13, %11, %4
  %15 = getelementptr i8, ptr %3, i64 8
  %.val20 = load i64, ptr %15, align 8, !tbaa !12
  %16 = ptrtoint ptr %3 to i64
  %17 = and i64 %16, 1
  %.not21 = icmp eq i64 %17, 0
  br i1 %.not21, label %18, label %lean_dec.exit12

18:                                               ; preds = %lean_dec.exit13
  %19 = load i32, ptr %3, align 4, !tbaa !8
  %20 = icmp sgt i32 %19, 1
  br i1 %20, label %21, label %23, !prof !11

21:                                               ; preds = %18
  %22 = add nsw i32 %19, -1
  store i32 %22, ptr %3, align 4, !tbaa !8
  br label %lean_dec.exit12

23:                                               ; preds = %18
  %.not.i14 = icmp eq i32 %19, 0
  br i1 %.not.i14, label %lean_dec.exit12, label %24

24:                                               ; preds = %23
  tail call void @lean_dec_ref_cold(ptr noundef nonnull %3) #3
  br label %lean_dec.exit12

lean_dec.exit12:                                  ; preds = %24, %23, %21, %lean_dec.exit13
  %25 = tail call zeroext i8 @l_Array_anyMUnsafe_any___at_Lean_Elab_Term_addNamedArg___spec__1(ptr noundef %0, ptr noundef %1, i64 noundef %.val, i64 noundef %.val20)
  %26 = ptrtoint ptr %1 to i64
  %27 = and i64 %26, 1
  %.not22 = icmp eq i64 %27, 0
  br i1 %.not22, label %28, label %lean_dec.exit11

28:                                               ; preds = %lean_dec.exit12
  %29 = load i32, ptr %1, align 4, !tbaa !8
  %30 = icmp sgt i32 %29, 1
  br i1 %30, label %31, label %33, !prof !11

31:                                               ; preds = %28
  %32 = add nsw i32 %29, -1
  store i32 %32, ptr %1, align 4, !tbaa !8
  br label %lean_dec.exit11

33:                                               ; preds = %28
  %.not.i16 = icmp eq i32 %29, 0
  br i1 %.not.i16, label %lean_dec.exit11, label %34

34:                                               ; preds = %33
  tail call void @lean_dec_ref_cold(ptr noundef nonnull %1) #3
  br label %lean_dec.exit11

lean_dec.exit11:                                  ; preds = %34, %33, %31, %lean_dec.exit12
  %35 = ptrtoint ptr %0 to i64
  %36 = and i64 %35, 1
  %.not23 = icmp eq i64 %36, 0
  br i1 %.not23, label %37, label %lean_dec.exit

37:                                               ; preds = %lean_dec.exit11
  %38 = load i32, ptr %0, align 4, !tbaa !8
  %39 = icmp sgt i32 %38, 1
  br i1 %39, label %40, label %42, !prof !11

40:                                               ; preds = %37
  %41 = add nsw i32 %38, -1
  store i32 %41, ptr %0, align 4, !tbaa !8
  br label %lean_dec.exit

42:                                               ; preds = %37
  %.not.i18 = icmp eq i32 %38, 0
  br i1 %.not.i18, label %lean_dec.exit, label %43

43:                                               ; preds = %42
  tail call void @lean_dec_ref_cold(ptr noundef nonnull %0) #3
  br label %lean_dec.exit

lean_dec.exit:                                    ; preds = %43, %42, %40, %lean_dec.exit11
  %44 = shl nuw nsw i8 %25, 1
  %45 = or disjoint i8 %44, 1
  %46 = zext nneg i8 %45 to i64
  %47 = inttoptr i64 %46 to ptr
  ret ptr %47
}